(dp0
Vengine
p1
Vxelatex
p2
sVpackages
p3
c__builtin__
set
p4
((lp5
Vzh_CN-Adobefonts_external
p6
aVcite
p7
aVlinespacing_fix
p8
atp9
Rp10
sVfiles_with_guttermarks
p11
g4
((lp12
S'resume-zh_CN.tex'
p13
atp14
Rp15
sVsynctex
p16
I01
s.